; Function Attrs: mustprogress uwtable
define noundef i64 @_ZN7Archive14SearchSubBlockEPKw(ptr noundef nonnull align 8 dereferenceable(57108) %0, ptr noundef readonly %1) local_unnamed_addr #0 align 2 {
  %3 = getelementptr inbounds i8, ptr %0, i64 11076
  %4 = getelementptr inbounds i8, ptr %0, i64 31264
  %5 = tail call noundef i64 @_ZN7Archive10ReadHeaderEv(ptr noundef nonnull align 8 dereferenceable(57108) %0)
  %.not7 = icmp eq i64 %5, 0
  %6 = load i32, ptr %3, align 4
  %.not613 = icmp eq i32 %6, 5
  %or.cond = select i1 %.not7, i1 true, i1 %.not613
  br i1 %or.cond, label %.critedge, label %.lr.ph15

.lr.ph15:                                         ; preds = %2, %19
  %7 = phi i32 [ %21, %19 ], [ %6, %2 ]
  %.0814 = phi i64 [ %9, %19 ], [ 0, %2 ]
  %8 = phi i64 [ %20, %19 ], [ %5, %2 ]
  %9 = add i64 %.0814, 1
  %10 = and i64 %9, 127
  %11 = icmp eq i64 %10, 0
  br i1 %11, label %12, label %13

12:                                               ; preds = %.lr.ph15
  tail call void @_Z4Waitv()
  %.pre = load i32, ptr %3, align 4
  br label %13

13:                                               ; preds = %12, %.lr.ph15
  %14 = phi i32 [ %.pre, %12 ], [ %7, %.lr.ph15 ]
  %15 = icmp eq i32 %14, 3
  br i1 %15, label %16, label %19

16:                                               ; preds = %13
  %17 = tail call i32 @wcscmp(ptr noundef nonnull %4, ptr noundef %1) #20
  %18 = icmp eq i32 %17, 0
  br i1 %18, label %.critedge, label %19

19:                                               ; preds = %16, %13
  tail call void @_ZN7Archive10SeekToNextEv(ptr noundef nonnull align 8 dereferenceable(57108) %0)
  %20 = tail call noundef i64 @_ZN7Archive10ReadHeaderEv(ptr noundef nonnull align 8 dereferenceable(57108) %0)
  %.not = icmp eq i64 %20, 0
  %21 = load i32, ptr %3, align 4
  %.not6 = icmp eq i32 %21, 5
  %or.cond19 = select i1 %.not, i1 true, i1 %.not6
  br i1 %or.cond19, label %.critedge, label %.lr.ph15, !llvm.loop !11

.critedge:                                        ; preds = %19, %16, %2
  %.04 = phi i64 [ 0, %2 ], [ %8, %16 ], [ 0, %19 ]
  ret i64 %.04
}